target datalayout = "e-m:e-p270:32:32-p271:32:32-p272:64:64-i64:64-i128:128-f80:128-n8:16:32:64-S128"
target triple = "x86_64-pc-linux-gnu"

; Function Attrs: inlinehint mustprogress nounwind uwtable
define internal noundef signext i8 @_ZL9U_SUCCESS10UErrorCode(i32 noundef %0) #6 {
  %2 = alloca i32, align 4
  store i32 %0, ptr %2, align 4, !tbaa !30
  %3 = load i32, ptr %2, align 4, !tbaa !30
  %4 = icmp sle i32 %3, 0
  %5 = zext i1 %4 to i8
  ret i8 %5
}

; Function Attrs: inlinehint mustprogress nounwind uwtable
define internal noundef signext i8 @_ZL9U_FAILURE10UErrorCode(i32 noundef %0) #6 {
  %2 = alloca i32, align 4
  store i32 %0, ptr %2, align 4, !tbaa !30
  %3 = load i32, ptr %2, align 4, !tbaa !30
  %4 = icmp sgt i32 %3, 0
  %5 = zext i1 %4 to i8
  ret i8 %5
}

; Function Attrs: mustprogress uwtable
define i32 @ustrcase_mapWithOverlap_77(i32 noundef %0, i32 noundef %1, ptr noundef %2, ptr noundef %3, i32 noundef %4, ptr noundef %5, i32 noundef %6, ptr noundef %7, ptr noundef nonnull align 4 dereferenceable(4) %8) #0 {
  %10 = alloca i32, align 4
  %11 = alloca i32, align 4
  %12 = alloca i32, align 4
  %13 = alloca ptr, align 8
  %14 = alloca ptr, align 8
  %15 = alloca i32, align 4
  %16 = alloca ptr, align 8
  %17 = alloca i32, align 4
  %18 = alloca ptr, align 8
  %19 = alloca ptr, align 8
  %20 = alloca [300 x i16], align 16
  %21 = alloca ptr, align 8
  %22 = alloca i32, align 4
  %23 = alloca i32, align 4
  store i32 %0, ptr %11, align 4, !tbaa !3
  store i32 %1, ptr %12, align 4, !tbaa !3
  store ptr %2, ptr %13, align 8, !tbaa !7
  store ptr %3, ptr %14, align 8, !tbaa !10
  store i32 %4, ptr %15, align 4, !tbaa !3
  store ptr %5, ptr %16, align 8, !tbaa !10
  store i32 %6, ptr %17, align 4, !tbaa !3
  store ptr %7, ptr %18, align 8, !tbaa !14
  store ptr %8, ptr %19, align 8, !tbaa !14
  call void @llvm.lifetime.start.p0(i64 600, ptr %20) #9
  call void @llvm.lifetime.start.p0(i64 8, ptr %21) #9
  call void @llvm.lifetime.start.p0(i64 4, ptr %22) #9
  %24 = load ptr, ptr %19, align 8, !tbaa !14
  %25 = load i32, ptr %24, align 4, !tbaa !30
  %26 = call noundef signext i8 @_ZL9U_FAILURE10UErrorCode(i32 noundef %25)
  %27 = icmp ne i8 %26, 0
  br i1 %27, label %28, label %29

28:                                               ; preds = %9
  store i32 0, ptr %10, align 4
  store i32 1, ptr %23, align 4
  br label %139

29:                                               ; preds = %9
  %30 = load i32, ptr %15, align 4, !tbaa !3
  %31 = icmp slt i32 %30, 0
  br i1 %31, label %44, label %32

32:                                               ; preds = %29
  %33 = load ptr, ptr %14, align 8, !tbaa !10
  %34 = icmp eq ptr %33, null
  br i1 %34, label %35, label %38

35:                                               ; preds = %32
  %36 = load i32, ptr %15, align 4, !tbaa !3
  %37 = icmp sgt i32 %36, 0
  br i1 %37, label %44, label %38

38:                                               ; preds = %35, %32
  %39 = load ptr, ptr %16, align 8, !tbaa !10
  %40 = icmp eq ptr %39, null
  br i1 %40, label %44, label %41

41:                                               ; preds = %38
  %42 = load i32, ptr %17, align 4, !tbaa !3
  %43 = icmp slt i32 %42, -1
  br i1 %43, label %44, label %46

44:                                               ; preds = %41, %38, %35, %29
  %45 = load ptr, ptr %19, align 8, !tbaa !14
  store i32 1, ptr %45, align 4, !tbaa !30
  store i32 0, ptr %10, align 4
  store i32 1, ptr %23, align 4
  br label %139

46:                                               ; preds = %41
  %47 = load i32, ptr %17, align 4, !tbaa !3
  %48 = icmp eq i32 %47, -1
  br i1 %48, label %49, label %52

49:                                               ; preds = %46
  %50 = load ptr, ptr %16, align 8, !tbaa !10
  %51 = call i32 @u_strlen_77(ptr noundef %50)
  store i32 %51, ptr %17, align 4, !tbaa !3
  br label %52

52:                                               ; preds = %49, %46
  %53 = load ptr, ptr %14, align 8, !tbaa !10
  %54 = icmp ne ptr %53, null
  br i1 %54, label %55, label %93

55:                                               ; preds = %52
  %56 = load ptr, ptr %16, align 8, !tbaa !10
  %57 = load ptr, ptr %14, align 8, !tbaa !10
  %58 = icmp uge ptr %56, %57
  br i1 %58, label %59, label %66

59:                                               ; preds = %55
  %60 = load ptr, ptr %16, align 8, !tbaa !10
  %61 = load ptr, ptr %14, align 8, !tbaa !10
  %62 = load i32, ptr %15, align 4, !tbaa !3
  %63 = sext i32 %62 to i64
  %64 = getelementptr inbounds i16, ptr %61, i64 %63
  %65 = icmp ult ptr %60, %64
  br i1 %65, label %77, label %66

66:                                               ; preds = %59, %55
  %67 = load ptr, ptr %14, align 8, !tbaa !10
  %68 = load ptr, ptr %16, align 8, !tbaa !10
  %69 = icmp uge ptr %67, %68
  br i1 %69, label %70, label %93

70:                                               ; preds = %66
  %71 = load ptr, ptr %14, align 8, !tbaa !10
  %72 = load ptr, ptr %16, align 8, !tbaa !10
  %73 = load i32, ptr %17, align 4, !tbaa !3
  %74 = sext i32 %73 to i64
  %75 = getelementptr inbounds i16, ptr %72, i64 %74
  %76 = icmp ult ptr %71, %75
  br i1 %76, label %77, label %93

77:                                               ; preds = %70, %59
  %78 = load i32, ptr %15, align 4, !tbaa !3
  %79 = icmp sle i32 %78, 300
  br i1 %79, label %80, label %82

80:                                               ; preds = %77
  %81 = getelementptr inbounds [300 x i16], ptr %20, i64 0, i64 0
  store ptr %81, ptr %21, align 8, !tbaa !10
  br label %92

82:                                               ; preds = %77
  %83 = load i32, ptr %15, align 4, !tbaa !3
  %84 = mul nsw i32 %83, 2
  %85 = sext i32 %84 to i64
  %86 = call noalias ptr @uprv_malloc_77(i64 noundef %85) #10
  store ptr %86, ptr %21, align 8, !tbaa !10
  %87 = load ptr, ptr %21, align 8, !tbaa !10
  %88 = icmp eq ptr %87, null
  br i1 %88, label %89, label %91

89:                                               ; preds = %82
  %90 = load ptr, ptr %19, align 8, !tbaa !14
  store i32 7, ptr %90, align 4, !tbaa !30
  store i32 0, ptr %10, align 4
  store i32 1, ptr %23, align 4
  br label %139

91:                                               ; preds = %82
  br label %92

92:                                               ; preds = %91, %80
  br label %95

93:                                               ; preds = %70, %66, %52
  %94 = load ptr, ptr %14, align 8, !tbaa !10
  store ptr %94, ptr %21, align 8, !tbaa !10
  br label %95

95:                                               ; preds = %93, %92
  %96 = load ptr, ptr %18, align 8, !tbaa !14
  %97 = load i32, ptr %11, align 4, !tbaa !3
  %98 = load i32, ptr %12, align 4, !tbaa !3
  %99 = load ptr, ptr %13, align 8, !tbaa !7
  %100 = load ptr, ptr %21, align 8, !tbaa !10
  %101 = load i32, ptr %15, align 4, !tbaa !3
  %102 = load ptr, ptr %16, align 8, !tbaa !10
  %103 = load i32, ptr %17, align 4, !tbaa !3
  %104 = load ptr, ptr %19, align 8, !tbaa !14
  %105 = call noundef i32 %96(i32 noundef %97, i32 noundef %98, ptr noundef %99, ptr noundef %100, i32 noundef %101, ptr noundef %102, i32 noundef %103, ptr noundef null, ptr noundef nonnull align 4 dereferenceable(4) %104)
  store i32 %105, ptr %22, align 4, !tbaa !3
  %106 = load ptr, ptr %21, align 8, !tbaa !10
  %107 = load ptr, ptr %14, align 8, !tbaa !10
  %108 = icmp ne ptr %106, %107
  br i1 %108, label %109, label %133

109:                                              ; preds = %95
  %110 = load ptr, ptr %19, align 8, !tbaa !14
  %111 = load i32, ptr %110, align 4, !tbaa !30
  %112 = call noundef signext i8 @_ZL9U_SUCCESS10UErrorCode(i32 noundef %111)
  %113 = icmp ne i8 %112, 0
  br i1 %113, label %114, label %126

114:                                              ; preds = %109
  %115 = load i32, ptr %22, align 4, !tbaa !3
  %116 = icmp slt i32 0, %115
  br i1 %116, label %117, label %126

117:                                              ; preds = %114
  %118 = load i32, ptr %22, align 4, !tbaa !3
  %119 = load i32, ptr %15, align 4, !tbaa !3
  %120 = icmp sle i32 %118, %119
  br i1 %120, label %121, label %126

121:                                              ; preds = %117
  %122 = load ptr, ptr %14, align 8, !tbaa !10
  %123 = load ptr, ptr %21, align 8, !tbaa !10
  %124 = load i32, ptr %22, align 4, !tbaa !3
  %125 = call ptr @u_memmove_77(ptr noundef %122, ptr noundef %123, i32 noundef %124)
  br label %126

126:                                              ; preds = %121, %117, %114, %109
  %127 = load ptr, ptr %21, align 8, !tbaa !10
  %128 = getelementptr inbounds [300 x i16], ptr %20, i64 0, i64 0
  %129 = icmp ne ptr %127, %128
  br i1 %129, label %130, label %132

130:                                              ; preds = %126
  %131 = load ptr, ptr %21, align 8, !tbaa !10
  call void @uprv_free_77(ptr noundef %131)
  br label %132

132:                                              ; preds = %130, %126
  br label %133

133:                                              ; preds = %132, %95
  %134 = load ptr, ptr %14, align 8, !tbaa !10
  %135 = load i32, ptr %15, align 4, !tbaa !3
  %136 = load i32, ptr %22, align 4, !tbaa !3
  %137 = load ptr, ptr %19, align 8, !tbaa !14
  %138 = call i32 @u_terminateUChars_77(ptr noundef %134, i32 noundef %135, i32 noundef %136, ptr noundef %137)
  store i32 %138, ptr %10, align 4
  store i32 1, ptr %23, align 4
  br label %139

139:                                              ; preds = %133, %89, %44, %28
  call void @llvm.lifetime.end.p0(i64 4, ptr %22) #9
  call void @llvm.lifetime.end.p0(i64 8, ptr %21) #9
  call void @llvm.lifetime.end.p0(i64 600, ptr %20) #9
  %140 = load i32, ptr %10, align 4
  ret i32 %140
}