; Function Attrs: mustprogress uwtable
define i32 @ustrcase_mapWithOverlap_77(i32 noundef %0, i32 noundef %1, ptr noundef %2, ptr noundef %3, i32 noundef %4, ptr noundef %5, i32 noundef %6, ptr noundef readonly captures(none) %7, ptr noundef nonnull align 4 dereferenceable(4) %8) local_unnamed_addr #0 {
  %10 = alloca [300 x i16], align 16
  call void @llvm.lifetime.start.p0(i64 600, ptr nonnull %10) #10
  %11 = load i32, ptr %8, align 4, !tbaa !3
  %12 = icmp slt i32 %11, 1
  br i1 %12, label %13, label %56

13:                                               ; preds = %9
  %14 = icmp slt i32 %4, 0
  br i1 %14, label %20, label %15

15:                                               ; preds = %13
  %16 = icmp eq ptr %3, null
  %17 = icmp ne i32 %4, 0
  %or.cond = and i1 %16, %17
  %18 = icmp eq ptr %5, null
  %or.cond3 = or i1 %or.cond, %18
  %19 = icmp slt i32 %6, -1
  %or.cond5 = or i1 %or.cond3, %19
  br i1 %or.cond5, label %20, label %21

20:                                               ; preds = %15, %13
  store i32 1, ptr %8, align 4, !tbaa !3
  br label %56

21:                                               ; preds = %15
  %22 = icmp eq i32 %6, -1
  br i1 %22, label %23, label %25

23:                                               ; preds = %21
  %24 = tail call i32 @u_strlen_77(ptr noundef nonnull %5)
  br label %25

25:                                               ; preds = %23, %21
  %.057 = phi i32 [ %24, %23 ], [ %6, %21 ]
  br i1 %16, label %.thread, label %26

26:                                               ; preds = %25
  %.not65 = icmp uge ptr %5, %3
  %27 = zext nneg i32 %4 to i64
  %28 = getelementptr inbounds nuw i16, ptr %3, i64 %27
  %29 = icmp ult ptr %5, %28
  %or.cond72 = select i1 %.not65, i1 %29, i1 false
  br i1 %or.cond72, label %34, label %30

30:                                               ; preds = %26
  %.not66 = icmp uge ptr %3, %5
  %31 = sext i32 %.057 to i64
  %32 = getelementptr inbounds i16, ptr %5, i64 %31
  %33 = icmp ult ptr %3, %32
  %or.cond75 = select i1 %.not66, i1 %33, i1 false
  br i1 %or.cond75, label %34, label %.thread

34:                                               ; preds = %30, %26
  %35 = icmp samesign ult i32 %4, 301
  br i1 %35, label %43, label %36

36:                                               ; preds = %34
  %37 = shl nuw nsw i32 %4, 1
  %38 = zext nneg i32 %37 to i64
  %39 = tail call noalias ptr @uprv_malloc_77(i64 noundef %38) #11
  %40 = icmp eq ptr %39, null
  br i1 %40, label %41, label %43

41:                                               ; preds = %36
  store i32 7, ptr %8, align 4, !tbaa !3
  br label %56

.thread:                                          ; preds = %30, %25
  %42 = tail call noundef i32 %7(i32 noundef %0, i32 noundef %1, ptr noundef %2, ptr noundef %3, i32 noundef %4, ptr noundef nonnull %5, i32 noundef %.057, ptr noundef null, ptr noundef nonnull align 4 dereferenceable(4) %8)
  br label %53

43:                                               ; preds = %34, %36
  %.056 = phi ptr [ %39, %36 ], [ %10, %34 ]
  %44 = call noundef i32 %7(i32 noundef %0, i32 noundef %1, ptr noundef %2, ptr noundef nonnull %.056, i32 noundef %4, ptr noundef nonnull %5, i32 noundef %.057, ptr noundef null, ptr noundef nonnull align 4 dereferenceable(4) %8)
  %.not67 = icmp eq ptr %.056, %3
  br i1 %.not67, label %53, label %45

45:                                               ; preds = %43
  %46 = load i32, ptr %8, align 4, !tbaa !3
  %47 = icmp sgt i32 %46, 0
  %48 = icmp slt i32 %44, 1
  %or.cond7.not80 = or i1 %48, %47
  %.not68 = icmp sgt i32 %44, %4
  %or.cond76 = or i1 %.not68, %or.cond7.not80
  br i1 %or.cond76, label %51, label %49

49:                                               ; preds = %45
  %50 = call ptr @u_memmove_77(ptr noundef nonnull %3, ptr noundef nonnull %.056, i32 noundef %44)
  br label %51

51:                                               ; preds = %49, %45
  %.not69 = icmp eq ptr %.056, %10
  br i1 %.not69, label %53, label %52

52:                                               ; preds = %51
  call void @uprv_free_77(ptr noundef nonnull %.056)
  br label %53

53:                                               ; preds = %.thread, %51, %52, %43
  %54 = phi i32 [ %42, %.thread ], [ %44, %51 ], [ %44, %52 ], [ %44, %43 ]
  %55 = call i32 @u_terminateUChars_77(ptr noundef %3, i32 noundef %4, i32 noundef %54, ptr noundef nonnull %8)
  br label %56

56:                                               ; preds = %9, %53, %41, %20
  %.0 = phi i32 [ 0, %20 ], [ %55, %53 ], [ 0, %41 ], [ 0, %9 ]
  call void @llvm.lifetime.end.p0(i64 600, ptr nonnull %10) #10
  ret i32 %.0
}